; Function Attrs: nounwind uwtable
define nonnull ptr @l_Lean_Elab_HeaderSyntax_isModule___boxed(ptr noundef %0) local_unnamed_addr #0 {
  %2 = tail call ptr @l_Lean_Syntax_getArg(ptr noundef %0, ptr noundef nonnull inttoptr (i64 1 to ptr)) #5
  %3 = tail call zeroext i8 @l_Lean_Syntax_isNone(ptr noundef %2) #5
  %4 = ptrtoint ptr %2 to i64
  %5 = and i64 %4, 1
  %.not.i3 = icmp eq i64 %5, 0
  br i1 %.not.i3, label %6, label %l_Lean_Elab_HeaderSyntax_isModule.exit

6:                                                ; preds = %1
  %7 = load i32, ptr %2, align 4, !tbaa !8
  %8 = icmp sgt i32 %7, 1
  br i1 %8, label %9, label %11, !prof !11

9:                                                ; preds = %6
  %10 = add nsw i32 %7, -1
  store i32 %10, ptr %2, align 4, !tbaa !8
  br label %l_Lean_Elab_HeaderSyntax_isModule.exit

11:                                               ; preds = %6
  %.not.i.i = icmp eq i32 %7, 0
  br i1 %.not.i.i, label %l_Lean_Elab_HeaderSyntax_isModule.exit, label %12

12:                                               ; preds = %11
  tail call void @lean_dec_ref_cold(ptr noundef nonnull %2) #5
  br label %l_Lean_Elab_HeaderSyntax_isModule.exit

l_Lean_Elab_HeaderSyntax_isModule.exit:           ; preds = %1, %9, %11, %12
  %13 = ptrtoint ptr %0 to i64
  %14 = and i64 %13, 1
  %.not = icmp eq i64 %14, 0
  br i1 %.not, label %15, label %lean_dec.exit

15:                                               ; preds = %l_Lean_Elab_HeaderSyntax_isModule.exit
  %16 = load i32, ptr %0, align 4, !tbaa !8
  %17 = icmp sgt i32 %16, 1
  br i1 %17, label %18, label %20, !prof !11

18:                                               ; preds = %15
  %19 = add nsw i32 %16, -1
  store i32 %19, ptr %0, align 4, !tbaa !8
  br label %lean_dec.exit

20:                                               ; preds = %15
  %.not.i = icmp eq i32 %16, 0
  br i1 %.not.i, label %lean_dec.exit, label %21

21:                                               ; preds = %20
  tail call void @lean_dec_ref_cold(ptr noundef nonnull %0) #5
  br label %lean_dec.exit

lean_dec.exit:                                    ; preds = %21, %20, %18, %l_Lean_Elab_HeaderSyntax_isModule.exit
  %22 = icmp eq i8 %3, 0
  %23 = select i1 %22, ptr inttoptr (i64 3 to ptr), ptr inttoptr (i64 1 to ptr)
  ret ptr %23
}